target datalayout = "e-m:e-p270:32:32-p271:32:32-p272:64:64-i64:64-i128:128-f80:128-n8:16:32:64-S128"
target triple = "x86_64-pc-linux-gnu"

%struct.SAOParams = type { [3 x [4 x i32]], [3 x [4 x i32]], [3 x i8], [3 x i32], [3 x [5 x i16]], [3 x i8] }

; Function Attrs: alwaysinline nounwind willreturn memory(none) uwtable
define internal zeroext i8 @av_clip_uint8_c(i32 noundef %0) #3 {
  %2 = alloca i8, align 1
  %3 = alloca i32, align 4
  store i32 %0, ptr %3, align 4, !tbaa !9
  %4 = load i32, ptr %3, align 4, !tbaa !9
  %5 = and i32 %4, -256
  %6 = icmp ne i32 %5, 0
  br i1 %6, label %7, label %12

7:                                                ; preds = %1
  %8 = load i32, ptr %3, align 4, !tbaa !9
  %9 = xor i32 %8, -1
  %10 = ashr i32 %9, 31
  %11 = trunc i32 %10 to i8
  store i8 %11, ptr %2, align 1
  br label %15

12:                                               ; preds = %1
  %13 = load i32, ptr %3, align 4, !tbaa !9
  %14 = trunc i32 %13 to i8
  store i8 %14, ptr %2, align 1
  br label %15

15:                                               ; preds = %12, %7
  %16 = load i8, ptr %2, align 1
  ret i8 %16
}

; Function Attrs: nounwind uwtable
define internal void @sao_edge_restore_0_8(ptr noundef %0, ptr noundef %1, i64 noundef %2, i64 noundef %3, ptr noundef %4, ptr noundef %5, i32 noundef %6, i32 noundef %7, i32 noundef %8, ptr noundef %9, ptr noundef %10, ptr noundef %11) #0 {
  %13 = alloca ptr, align 8
  %14 = alloca ptr, align 8
  %15 = alloca i64, align 8
  %16 = alloca i64, align 8
  %17 = alloca ptr, align 8
  %18 = alloca ptr, align 8
  %19 = alloca i32, align 4
  %20 = alloca i32, align 4
  %21 = alloca i32, align 4
  %22 = alloca ptr, align 8
  %23 = alloca ptr, align 8
  %24 = alloca ptr, align 8
  %25 = alloca i32, align 4
  %26 = alloca i32, align 4
  %27 = alloca ptr, align 8
  %28 = alloca ptr, align 8
  %29 = alloca ptr, align 8
  %30 = alloca i32, align 4
  %31 = alloca i32, align 4
  %32 = alloca i32, align 4
  %33 = alloca i32, align 4
  %34 = alloca i32, align 4
  %35 = alloca i32, align 4
  %36 = alloca i32, align 4
  %37 = alloca i32, align 4
  %38 = alloca i32, align 4
  %39 = alloca i64, align 8
  %40 = alloca i64, align 8
  store ptr %0, ptr %13, align 8, !tbaa !144
  store ptr %1, ptr %14, align 8, !tbaa !144
  store i64 %2, ptr %15, align 8, !tbaa !146
  store i64 %3, ptr %16, align 8, !tbaa !146
  store ptr %4, ptr %17, align 8, !tbaa !446
  store ptr %5, ptr %18, align 8, !tbaa !247
  store i32 %6, ptr %19, align 4, !tbaa !9
  store i32 %7, ptr %20, align 4, !tbaa !9
  store i32 %8, ptr %21, align 4, !tbaa !9
  store ptr %9, ptr %22, align 8, !tbaa !144
  store ptr %10, ptr %23, align 8, !tbaa !144
  store ptr %11, ptr %24, align 8, !tbaa !144
  call void @llvm.lifetime.start.p0(i64 4, ptr %25) #8
  call void @llvm.lifetime.start.p0(i64 4, ptr %26) #8
  call void @llvm.lifetime.start.p0(i64 8, ptr %27) #8
  %41 = load ptr, ptr %13, align 8, !tbaa !144
  store ptr %41, ptr %27, align 8, !tbaa !144
  call void @llvm.lifetime.start.p0(i64 8, ptr %28) #8
  %42 = load ptr, ptr %14, align 8, !tbaa !144
  store ptr %42, ptr %28, align 8, !tbaa !144
  call void @llvm.lifetime.start.p0(i64 8, ptr %29) #8
  %43 = load ptr, ptr %17, align 8, !tbaa !446
  %44 = getelementptr inbounds nuw %struct.SAOParams, ptr %43, i32 0, i32 4
  %45 = load i32, ptr %21, align 4, !tbaa !9
  %46 = sext i32 %45 to i64
  %47 = getelementptr inbounds [3 x [5 x i16]], ptr %44, i64 0, i64 %46
  %48 = getelementptr inbounds [5 x i16], ptr %47, i64 0, i64 0
  store ptr %48, ptr %29, align 8, !tbaa !142
  call void @llvm.lifetime.start.p0(i64 4, ptr %30) #8
  %49 = load ptr, ptr %17, align 8, !tbaa !446
  %50 = getelementptr inbounds nuw %struct.SAOParams, ptr %49, i32 0, i32 3
  %51 = load i32, ptr %21, align 4, !tbaa !9
  %52 = sext i32 %51 to i64
  %53 = getelementptr inbounds [3 x i32], ptr %50, i64 0, i64 %52
  %54 = load i32, ptr %53, align 4, !tbaa !9
  store i32 %54, ptr %30, align 4, !tbaa !9
  call void @llvm.lifetime.start.p0(i64 4, ptr %31) #8
  store i32 0, ptr %31, align 4, !tbaa !9
  call void @llvm.lifetime.start.p0(i64 4, ptr %32) #8
  %55 = load i32, ptr %19, align 4, !tbaa !9
  store i32 %55, ptr %32, align 4, !tbaa !9
  call void @llvm.lifetime.start.p0(i64 4, ptr %33) #8
  %56 = load i32, ptr %20, align 4, !tbaa !9
  store i32 %56, ptr %33, align 4, !tbaa !9
  %57 = load i64, ptr %15, align 8, !tbaa !146
  %58 = udiv i64 %57, 1
  store i64 %58, ptr %15, align 8, !tbaa !146
  %59 = load i64, ptr %16, align 8, !tbaa !146
  %60 = udiv i64 %59, 1
  store i64 %60, ptr %16, align 8, !tbaa !146
  %61 = load i32, ptr %30, align 4, !tbaa !9
  %62 = icmp ne i32 %61, 1
  br i1 %62, label %63, label %146

63:                                               ; preds = %12
  %64 = load ptr, ptr %18, align 8, !tbaa !247
  %65 = getelementptr inbounds i32, ptr %64, i64 0
  %66 = load i32, ptr %65, align 4, !tbaa !9
  %67 = icmp ne i32 %66, 0
  br i1 %67, label %68, label %99

68:                                               ; preds = %63
  call void @llvm.lifetime.start.p0(i64 4, ptr %34) #8
  %69 = load ptr, ptr %29, align 8, !tbaa !142
  %70 = getelementptr inbounds i16, ptr %69, i64 0
  %71 = load i16, ptr %70, align 2, !tbaa !148
  %72 = sext i16 %71 to i32
  store i32 %72, ptr %34, align 4, !tbaa !9
  store i32 0, ptr %26, align 4, !tbaa !9
  br label %73

73:                                               ; preds = %95, %68
  %74 = load i32, ptr %26, align 4, !tbaa !9
  %75 = load i32, ptr %33, align 4, !tbaa !9
  %76 = icmp slt i32 %74, %75
  br i1 %76, label %77, label %98

77:                                               ; preds = %73
  %78 = load ptr, ptr %28, align 8, !tbaa !144
  %79 = load i32, ptr %26, align 4, !tbaa !9
  %80 = sext i32 %79 to i64
  %81 = load i64, ptr %16, align 8, !tbaa !146
  %82 = mul nsw i64 %80, %81
  %83 = getelementptr inbounds i8, ptr %78, i64 %82
  %84 = load i8, ptr %83, align 1, !tbaa !152
  %85 = zext i8 %84 to i32
  %86 = load i32, ptr %34, align 4, !tbaa !9
  %87 = add nsw i32 %85, %86
  %88 = call zeroext i8 @av_clip_uint8_c(i32 noundef %87) #9
  %89 = load ptr, ptr %27, align 8, !tbaa !144
  %90 = load i32, ptr %26, align 4, !tbaa !9
  %91 = sext i32 %90 to i64
  %92 = load i64, ptr %15, align 8, !tbaa !146
  %93 = mul nsw i64 %91, %92
  %94 = getelementptr inbounds i8, ptr %89, i64 %93
  store i8 %88, ptr %94, align 1, !tbaa !152
  br label %95

95:                                               ; preds = %77
  %96 = load i32, ptr %26, align 4, !tbaa !9
  %97 = add nsw i32 %96, 1
  store i32 %97, ptr %26, align 4, !tbaa !9
  br label %73, !llvm.loop !875

98:                                               ; preds = %73
  store i32 1, ptr %31, align 4, !tbaa !9
  call void @llvm.lifetime.end.p0(i64 4, ptr %34) #8
  br label %99

99:                                               ; preds = %98, %63
  %100 = load ptr, ptr %18, align 8, !tbaa !247
  %101 = getelementptr inbounds i32, ptr %100, i64 2
  %102 = load i32, ptr %101, align 4, !tbaa !9
  %103 = icmp ne i32 %102, 0
  br i1 %103, label %104, label %145

104:                                              ; preds = %99
  call void @llvm.lifetime.start.p0(i64 4, ptr %35) #8
  %105 = load ptr, ptr %29, align 8, !tbaa !142
  %106 = getelementptr inbounds i16, ptr %105, i64 0
  %107 = load i16, ptr %106, align 2, !tbaa !148
  %108 = sext i16 %107 to i32
  store i32 %108, ptr %35, align 4, !tbaa !9
  call void @llvm.lifetime.start.p0(i64 4, ptr %36) #8
  %109 = load i32, ptr %32, align 4, !tbaa !9
  %110 = sub nsw i32 %109, 1
  store i32 %110, ptr %36, align 4, !tbaa !9
  store i32 0, ptr %25, align 4, !tbaa !9
  br label %111

111:                                              ; preds = %139, %104
  %112 = load i32, ptr %25, align 4, !tbaa !9
  %113 = load i32, ptr %33, align 4, !tbaa !9
  %114 = icmp slt i32 %112, %113
  br i1 %114, label %115, label %142

115:                                              ; preds = %111
  %116 = load ptr, ptr %28, align 8, !tbaa !144
  %117 = load i32, ptr %25, align 4, !tbaa !9
  %118 = sext i32 %117 to i64
  %119 = load i64, ptr %16, align 8, !tbaa !146
  %120 = mul nsw i64 %118, %119
  %121 = load i32, ptr %36, align 4, !tbaa !9
  %122 = sext i32 %121 to i64
  %123 = add nsw i64 %120, %122
  %124 = getelementptr inbounds i8, ptr %116, i64 %123
  %125 = load i8, ptr %124, align 1, !tbaa !152
  %126 = zext i8 %125 to i32
  %127 = load i32, ptr %35, align 4, !tbaa !9
  %128 = add nsw i32 %126, %127
  %129 = call zeroext i8 @av_clip_uint8_c(i32 noundef %128) #9
  %130 = load ptr, ptr %27, align 8, !tbaa !144
  %131 = load i32, ptr %25, align 4, !tbaa !9
  %132 = sext i32 %131 to i64
  %133 = load i64, ptr %15, align 8, !tbaa !146
  %134 = mul nsw i64 %132, %133
  %135 = load i32, ptr %36, align 4, !tbaa !9
  %136 = sext i32 %135 to i64
  %137 = add nsw i64 %134, %136
  %138 = getelementptr inbounds i8, ptr %130, i64 %137
  store i8 %129, ptr %138, align 1, !tbaa !152
  br label %139

139:                                              ; preds = %115
  %140 = load i32, ptr %25, align 4, !tbaa !9
  %141 = add nsw i32 %140, 1
  store i32 %141, ptr %25, align 4, !tbaa !9
  br label %111, !llvm.loop !876

142:                                              ; preds = %111
  %143 = load i32, ptr %32, align 4, !tbaa !9
  %144 = add nsw i32 %143, -1
  store i32 %144, ptr %32, align 4, !tbaa !9
  call void @llvm.lifetime.end.p0(i64 4, ptr %36) #8
  call void @llvm.lifetime.end.p0(i64 4, ptr %35) #8
  br label %145

145:                                              ; preds = %142, %99
  br label %146

146:                                              ; preds = %145, %12
  %147 = load i32, ptr %30, align 4, !tbaa !9
  %148 = icmp ne i32 %147, 0
  br i1 %148, label %149, label %232

149:                                              ; preds = %146
  %150 = load ptr, ptr %18, align 8, !tbaa !247
  %151 = getelementptr inbounds i32, ptr %150, i64 1
  %152 = load i32, ptr %151, align 4, !tbaa !9
  %153 = icmp ne i32 %152, 0
  br i1 %153, label %154, label %182

154:                                              ; preds = %149
  call void @llvm.lifetime.start.p0(i64 4, ptr %37) #8
  %155 = load ptr, ptr %29, align 8, !tbaa !142
  %156 = getelementptr inbounds i16, ptr %155, i64 0
  %157 = load i16, ptr %156, align 2, !tbaa !148
  %158 = sext i16 %157 to i32
  store i32 %158, ptr %37, align 4, !tbaa !9
  %159 = load i32, ptr %31, align 4, !tbaa !9
  store i32 %159, ptr %25, align 4, !tbaa !9
  br label %160

160:                                              ; preds = %178, %154
  %161 = load i32, ptr %25, align 4, !tbaa !9
  %162 = load i32, ptr %32, align 4, !tbaa !9
  %163 = icmp slt i32 %161, %162
  br i1 %163, label %164, label %181

164:                                              ; preds = %160
  %165 = load ptr, ptr %28, align 8, !tbaa !144
  %166 = load i32, ptr %25, align 4, !tbaa !9
  %167 = sext i32 %166 to i64
  %168 = getelementptr inbounds i8, ptr %165, i64 %167
  %169 = load i8, ptr %168, align 1, !tbaa !152
  %170 = zext i8 %169 to i32
  %171 = load i32, ptr %37, align 4, !tbaa !9
  %172 = add nsw i32 %170, %171
  %173 = call zeroext i8 @av_clip_uint8_c(i32 noundef %172) #9
  %174 = load ptr, ptr %27, align 8, !tbaa !144
  %175 = load i32, ptr %25, align 4, !tbaa !9
  %176 = sext i32 %175 to i64
  %177 = getelementptr inbounds i8, ptr %174, i64 %176
  store i8 %173, ptr %177, align 1, !tbaa !152
  br label %178

178:                                              ; preds = %164
  %179 = load i32, ptr %25, align 4, !tbaa !9
  %180 = add nsw i32 %179, 1
  store i32 %180, ptr %25, align 4, !tbaa !9
  br label %160, !llvm.loop !877

181:                                              ; preds = %160
  call void @llvm.lifetime.end.p0(i64 4, ptr %37) #8
  br label %182

182:                                              ; preds = %181, %149
  %183 = load ptr, ptr %18, align 8, !tbaa !247
  %184 = getelementptr inbounds i32, ptr %183, i64 3
  %185 = load i32, ptr %184, align 4, !tbaa !9
  %186 = icmp ne i32 %185, 0
  br i1 %186, label %187, label %231

187:                                              ; preds = %182
  call void @llvm.lifetime.start.p0(i64 4, ptr %38) #8
  %188 = load ptr, ptr %29, align 8, !tbaa !142
  %189 = getelementptr inbounds i16, ptr %188, i64 0
  %190 = load i16, ptr %189, align 2, !tbaa !148
  %191 = sext i16 %190 to i32
  store i32 %191, ptr %38, align 4, !tbaa !9
  call void @llvm.lifetime.start.p0(i64 8, ptr %39) #8
  %192 = load i64, ptr %15, align 8, !tbaa !146
  %193 = load i32, ptr %33, align 4, !tbaa !9
  %194 = sub nsw i32 %193, 1
  %195 = sext i32 %194 to i64
  %196 = mul nsw i64 %192, %195
  store i64 %196, ptr %39, align 8, !tbaa !146
  call void @llvm.lifetime.start.p0(i64 8, ptr %40) #8
  %197 = load i64, ptr %16, align 8, !tbaa !146
  %198 = load i32, ptr %33, align 4, !tbaa !9
  %199 = sub nsw i32 %198, 1
  %200 = sext i32 %199 to i64
  %201 = mul nsw i64 %197, %200
  store i64 %201, ptr %40, align 8, !tbaa !146
  %202 = load i32, ptr %31, align 4, !tbaa !9
  store i32 %202, ptr %25, align 4, !tbaa !9
  br label %203

203:                                              ; preds = %225, %187
  %204 = load i32, ptr %25, align 4, !tbaa !9
  %205 = load i32, ptr %32, align 4, !tbaa !9
  %206 = icmp slt i32 %204, %205
  br i1 %206, label %207, label %228

207:                                              ; preds = %203
  %208 = load ptr, ptr %28, align 8, !tbaa !144
  %209 = load i32, ptr %25, align 4, !tbaa !9
  %210 = sext i32 %209 to i64
  %211 = load i64, ptr %40, align 8, !tbaa !146
  %212 = add nsw i64 %210, %211
  %213 = getelementptr inbounds i8, ptr %208, i64 %212
  %214 = load i8, ptr %213, align 1, !tbaa !152
  %215 = zext i8 %214 to i32
  %216 = load i32, ptr %38, align 4, !tbaa !9
  %217 = add nsw i32 %215, %216
  %218 = call zeroext i8 @av_clip_uint8_c(i32 noundef %217) #9
  %219 = load ptr, ptr %27, align 8, !tbaa !144
  %220 = load i32, ptr %25, align 4, !tbaa !9
  %221 = sext i32 %220 to i64
  %222 = load i64, ptr %39, align 8, !tbaa !146
  %223 = add nsw i64 %221, %222
  %224 = getelementptr inbounds i8, ptr %219, i64 %223
  store i8 %218, ptr %224, align 1, !tbaa !152
  br label %225

225:                                              ; preds = %207
  %226 = load i32, ptr %25, align 4, !tbaa !9
  %227 = add nsw i32 %226, 1
  store i32 %227, ptr %25, align 4, !tbaa !9
  br label %203, !llvm.loop !878

228:                                              ; preds = %203
  %229 = load i32, ptr %33, align 4, !tbaa !9
  %230 = add nsw i32 %229, -1
  store i32 %230, ptr %33, align 4, !tbaa !9
  call void @llvm.lifetime.end.p0(i64 8, ptr %40) #8
  call void @llvm.lifetime.end.p0(i64 8, ptr %39) #8
  call void @llvm.lifetime.end.p0(i64 4, ptr %38) #8
  br label %231

231:                                              ; preds = %228, %182
  br label %232

232:                                              ; preds = %231, %146
  call void @llvm.lifetime.end.p0(i64 4, ptr %33) #8
  call void @llvm.lifetime.end.p0(i64 4, ptr %32) #8
  call void @llvm.lifetime.end.p0(i64 4, ptr %31) #8
  call void @llvm.lifetime.end.p0(i64 4, ptr %30) #8
  call void @llvm.lifetime.end.p0(i64 8, ptr %29) #8
  call void @llvm.lifetime.end.p0(i64 8, ptr %28) #8
  call void @llvm.lifetime.end.p0(i64 8, ptr %27) #8
  call void @llvm.lifetime.end.p0(i64 4, ptr %26) #8
  call void @llvm.lifetime.end.p0(i64 4, ptr %25) #8
  ret void
}