; Function Attrs: nofree norecurse nosync nounwind memory(argmem: readwrite) uwtable
define internal void @sao_edge_restore_0_8(ptr noundef writeonly captures(none) %0, ptr noundef readonly captures(none) %1, i64 noundef %2, i64 noundef %3, ptr noundef readonly captures(none) %4, ptr noundef readonly captures(none) %5, i32 noundef %6, i32 noundef %7, i32 noundef %8, ptr readnone captures(none) %9, ptr readnone captures(none) %10, ptr readnone captures(none) %11) #2 {
  %13 = getelementptr inbounds nuw i8, ptr %4, i64 112
  %14 = sext i32 %8 to i64
  %15 = getelementptr inbounds [3 x [5 x i16]], ptr %13, i64 0, i64 %14
  %16 = getelementptr inbounds nuw i8, ptr %4, i64 100
  %17 = getelementptr inbounds [3 x i32], ptr %16, i64 0, i64 %14
  %18 = load i32, ptr %17, align 4, !tbaa !274
  %.not = icmp eq i32 %18, 1
  br i1 %.not, label %.thread, label %19

19:                                               ; preds = %12
  %20 = load i32, ptr %5, align 4, !tbaa !274
  %.not72 = icmp eq i32 %20, 0
  br i1 %.not72, label %.loopexit93, label %21

21:                                               ; preds = %19
  %22 = load i16, ptr %15, align 2, !tbaa !124
  %23 = sext i16 %22 to i32
  %24 = icmp sgt i32 %7, 0
  br i1 %24, label %.lr.ph.preheader, label %.loopexit93

.lr.ph.preheader:                                 ; preds = %21
  %wide.trip.count = zext nneg i32 %7 to i64
  br label %.lr.ph

.lr.ph:                                           ; preds = %.lr.ph.preheader, %.lr.ph
  %indvars.iv = phi i64 [ 0, %.lr.ph.preheader ], [ %indvars.iv.next, %.lr.ph ]
  %25 = mul nsw i64 %3, %indvars.iv
  %26 = getelementptr inbounds i8, ptr %1, i64 %25
  %27 = load i8, ptr %26, align 1, !tbaa !128
  %28 = zext i8 %27 to i32
  %29 = add nsw i32 %28, %23
  %.not.i83 = icmp ult i32 %29, 256
  %isnotneg.i84 = icmp sgt i32 %29, -1
  %30 = sext i1 %isnotneg.i84 to i8
  %31 = trunc nuw i32 %29 to i8
  %.0.i85 = select i1 %.not.i83, i8 %31, i8 %30
  %32 = mul nsw i64 %2, %indvars.iv
  %33 = getelementptr inbounds i8, ptr %0, i64 %32
  store i8 %.0.i85, ptr %33, align 1, !tbaa !128
  %indvars.iv.next = add nuw nsw i64 %indvars.iv, 1
  %exitcond.not = icmp eq i64 %indvars.iv.next, %wide.trip.count
  br i1 %exitcond.not, label %.loopexit93, label %.lr.ph, !llvm.loop !835

.loopexit93:                                      ; preds = %.lr.ph, %21, %19
  %.170 = phi i32 [ 0, %19 ], [ 1, %21 ], [ 1, %.lr.ph ]
  %34 = getelementptr inbounds nuw i8, ptr %5, i64 8
  %35 = load i32, ptr %34, align 4, !tbaa !274
  %.not73 = icmp eq i32 %35, 0
  br i1 %.not73, label %.loopexit92, label %36

36:                                               ; preds = %.loopexit93
  %37 = load i16, ptr %15, align 2, !tbaa !124
  %38 = sext i16 %37 to i32
  %39 = add nsw i32 %6, -1
  %40 = icmp sgt i32 %7, 0
  br i1 %40, label %.lr.ph96, label %.loopexit92

.lr.ph96:                                         ; preds = %36
  %41 = sext i32 %39 to i64
  %invariant.gep = getelementptr i8, ptr %1, i64 %41
  %invariant.gep97 = getelementptr i8, ptr %0, i64 %41
  %wide.trip.count107 = zext nneg i32 %7 to i64
  br label %42

42:                                               ; preds = %.lr.ph96, %42
  %indvars.iv104 = phi i64 [ 0, %.lr.ph96 ], [ %indvars.iv.next105, %42 ]
  %43 = mul nsw i64 %3, %indvars.iv104
  %gep = getelementptr i8, ptr %invariant.gep, i64 %43
  %44 = load i8, ptr %gep, align 1, !tbaa !128
  %45 = zext i8 %44 to i32
  %46 = add nsw i32 %45, %38
  %.not.i80 = icmp ult i32 %46, 256
  %isnotneg.i81 = icmp sgt i32 %46, -1
  %47 = sext i1 %isnotneg.i81 to i8
  %48 = trunc nuw i32 %46 to i8
  %.0.i82 = select i1 %.not.i80, i8 %48, i8 %47
  %49 = mul nsw i64 %2, %indvars.iv104
  %gep98 = getelementptr i8, ptr %invariant.gep97, i64 %49
  store i8 %.0.i82, ptr %gep98, align 1, !tbaa !128
  %indvars.iv.next105 = add nuw nsw i64 %indvars.iv104, 1
  %exitcond108.not = icmp eq i64 %indvars.iv.next105, %wide.trip.count107
  br i1 %exitcond108.not, label %.loopexit92, label %42, !llvm.loop !836

.loopexit92:                                      ; preds = %42, %36, %.loopexit93
  %.071 = phi i32 [ %6, %.loopexit93 ], [ %39, %36 ], [ %39, %42 ]
  %.not74 = icmp eq i32 %18, 0
  br i1 %.not74, label %.loopexit, label %.thread

.thread:                                          ; preds = %12, %.loopexit92
  %.06990 = phi i32 [ %.170, %.loopexit92 ], [ 0, %12 ]
  %.07189 = phi i32 [ %.071, %.loopexit92 ], [ %6, %12 ]
  %50 = getelementptr inbounds nuw i8, ptr %5, i64 4
  %51 = load i32, ptr %50, align 4, !tbaa !274
  %.not75 = icmp eq i32 %51, 0
  br i1 %.not75, label %.loopexit91, label %52

52:                                               ; preds = %.thread
  %53 = load i16, ptr %15, align 2, !tbaa !124
  %54 = sext i16 %53 to i32
  %55 = icmp slt i32 %.06990, %.07189
  br i1 %55, label %.lr.ph100.preheader, label %.loopexit91

.lr.ph100.preheader:                              ; preds = %52
  %56 = zext nneg i32 %.06990 to i64
  %wide.trip.count112 = zext nneg i32 %.07189 to i64
  br label %.lr.ph100

.lr.ph100:                                        ; preds = %.lr.ph100.preheader, %.lr.ph100
  %indvars.iv109 = phi i64 [ %56, %.lr.ph100.preheader ], [ %indvars.iv.next110, %.lr.ph100 ]
  %57 = getelementptr inbounds nuw i8, ptr %1, i64 %indvars.iv109
  %58 = load i8, ptr %57, align 1, !tbaa !128
  %59 = zext i8 %58 to i32
  %60 = add nsw i32 %59, %54
  %.not.i77 = icmp ult i32 %60, 256
  %isnotneg.i78 = icmp sgt i32 %60, -1
  %61 = sext i1 %isnotneg.i78 to i8
  %62 = trunc nuw i32 %60 to i8
  %.0.i79 = select i1 %.not.i77, i8 %62, i8 %61
  %63 = getelementptr inbounds nuw i8, ptr %0, i64 %indvars.iv109
  store i8 %.0.i79, ptr %63, align 1, !tbaa !128
  %indvars.iv.next110 = add nuw nsw i64 %indvars.iv109, 1
  %exitcond113.not = icmp eq i64 %indvars.iv.next110, %wide.trip.count112
  br i1 %exitcond113.not, label %.loopexit91, label %.lr.ph100, !llvm.loop !837

.loopexit91:                                      ; preds = %.lr.ph100, %52, %.thread
  %64 = getelementptr inbounds nuw i8, ptr %5, i64 12
  %65 = load i32, ptr %64, align 4, !tbaa !274
  %.not76 = icmp eq i32 %65, 0
  br i1 %.not76, label %.loopexit, label %66

66:                                               ; preds = %.loopexit91
  %67 = load i16, ptr %15, align 2, !tbaa !124
  %68 = sext i16 %67 to i32
  %69 = icmp slt i32 %.06990, %.07189
  br i1 %69, label %.lr.ph102, label %.loopexit

.lr.ph102:                                        ; preds = %66
  %70 = add nsw i32 %7, -1
  %71 = sext i32 %70 to i64
  %72 = mul nsw i64 %3, %71
  %73 = mul nsw i64 %2, %71
  %74 = getelementptr i8, ptr %1, i64 %72
  %75 = getelementptr i8, ptr %0, i64 %73
  %76 = zext nneg i32 %.06990 to i64
  %wide.trip.count117 = zext nneg i32 %.07189 to i64
  br label %77

77:                                               ; preds = %.lr.ph102, %77
  %indvars.iv114 = phi i64 [ %76, %.lr.ph102 ], [ %indvars.iv.next115, %77 ]
  %78 = getelementptr i8, ptr %74, i64 %indvars.iv114
  %79 = load i8, ptr %78, align 1, !tbaa !128
  %80 = zext i8 %79 to i32
  %81 = add nsw i32 %80, %68
  %.not.i = icmp ult i32 %81, 256
  %isnotneg.i = icmp sgt i32 %81, -1
  %82 = sext i1 %isnotneg.i to i8
  %83 = trunc nuw i32 %81 to i8
  %.0.i = select i1 %.not.i, i8 %83, i8 %82
  %84 = getelementptr i8, ptr %75, i64 %indvars.iv114
  store i8 %.0.i, ptr %84, align 1, !tbaa !128
  %indvars.iv.next115 = add nuw nsw i64 %indvars.iv114, 1
  %exitcond118.not = icmp eq i64 %indvars.iv.next115, %wide.trip.count117
  br i1 %exitcond118.not, label %.loopexit, label %77, !llvm.loop !838

.loopexit:                                        ; preds = %77, %66, %.loopexit91, %.loopexit92
  ret void
}